target datalayout = "e-m:e-p270:32:32-p271:32:32-p272:64:64-i64:64-i128:128-f80:128-n8:16:32:64-S128"
target triple = "x86_64-pc-linux-gnu"

%struct.IDAMemRec = type { ptr, double, ptr, ptr, i32, double, double, ptr, i32, i32, ptr, ptr, i32, i32, i32, ptr, ptr, i32, i32, double, double, ptr, i32, i32, i32, i32, ptr, ptr, i32, ptr, ptr, ptr, i32, double, i32, i32, double, ptr, ptr, ptr, i32, ptr, ptr, i32, i32, i32, double, ptr, ptr, ptr, [6 x ptr], [6 x double], [6 x double], [6 x double], [6 x double], [6 x double], ptr, ptr, ptr, ptr, ptr, ptr, ptr, ptr, ptr, ptr, ptr, ptr, ptr, ptr, ptr, ptr, ptr, [6 x ptr], ptr, ptr, ptr, ptr, [6 x ptr], ptr, ptr, ptr, ptr, ptr, ptr, ptr, ptr, ptr, ptr, ptr, ptr, ptr, ptr, ptr, ptr, [6 x ptr], ptr, ptr, ptr, ptr, ptr, double, ptr, ptr, i32, i32, i32, i32, i32, i32, i32, i32, double, double, double, i32, double, i32, i32, i32, i32, i32, double, double, double, double, double, double, double, double, double, double, double, double, double, double, double, double, double, i32, i32, i32, i32, i64, double, double, double, double, double, double, double, double, double, i64, i64, i64, i64, i64, i64, i64, i64, i64, i64, i64, i64, i64, i64, i64, i64, i64, i64, i64, i64, i64, i64, i64, i64, i64, i64, double, i32, i32, i32, i32, i32, i32, i32, i32, i32, i32, i32, i32, i32, ptr, i32, ptr, i32, ptr, i32, ptr, ptr, ptr, ptr, ptr, ptr, i32, i32, ptr, ptr, ptr, ptr, ptr, ptr, ptr, double, i32, i32, ptr, i32, ptr, ptr, double, double, double, ptr, ptr, ptr, double, double, i32, i32, i64, ptr, i32, ptr, [5 x double], ptr, ptr, i32, ptr, i32 }
%struct.IDAadjMemRec = type { double, double, i32, i32, double, i32, double, ptr, i32, ptr, i32, ptr, ptr, i32, i64, i64, ptr, i64, i32, ptr, ptr, ptr, ptr, i32, i32, i32, i32, i32, [6 x ptr], [6 x ptr], [6 x double], ptr, ptr, ptr, ptr }
%struct.IDABMemRec = type { i32, double, ptr, i32, i32, ptr, ptr, ptr, ptr, ptr, ptr, ptr, ptr, ptr, double, ptr, ptr, ptr }

@.str = private unnamed_addr constant [111 x i8] c"generated/home/dtcxzyw/WorkSpace/Projects/compilers/llvm-opt-benchmark/bench/sundials/sundials/src/idas/idaa.c\00", align 1
@.str.1 = private unnamed_addr constant [24 x i8] c"ida_mem = NULL illegal.\00", align 1
@.str.4 = private unnamed_addr constant [25 x i8] c"A memory request failed.\00", align 1
@.str.5 = private unnamed_addr constant [51 x i8] c"Illegal attempt to call before calling IDAadjInit.\00", align 1
@__func__.IDACreateB = private unnamed_addr constant [11 x i8] c"IDACreateB\00", align 1

; Function Attrs: nounwind uwtable
define i32 @IDACreateB(ptr noundef %0, ptr noundef %1) #0 {
  %3 = alloca i32, align 4
  %4 = alloca ptr, align 8
  %5 = alloca ptr, align 8
  %6 = alloca ptr, align 8
  %7 = alloca ptr, align 8
  %8 = alloca ptr, align 8
  %9 = alloca ptr, align 8
  %10 = alloca i32, align 4
  store ptr %0, ptr %4, align 8, !tbaa !3
  store ptr %1, ptr %5, align 8, !tbaa !108
  call void @llvm.lifetime.start.p0(i64 8, ptr %6) #6
  call void @llvm.lifetime.start.p0(i64 8, ptr %7) #6
  call void @llvm.lifetime.start.p0(i64 8, ptr %8) #6
  call void @llvm.lifetime.start.p0(i64 8, ptr %9) #6
  %11 = load ptr, ptr %4, align 8, !tbaa !3
  %12 = icmp eq ptr %11, null
  br i1 %12, label %13, label %14

13:                                               ; preds = %2
  call void (ptr, i32, i32, ptr, ptr, ptr, ...) @IDAProcessError(ptr noundef null, i32 noundef -20, i32 noundef 664, ptr noundef @__func__.IDACreateB, ptr noundef @.str, ptr noundef @.str.1)
  store i32 -20, ptr %3, align 4
  store i32 1, ptr %10, align 4
  br label %94

14:                                               ; preds = %2
  %15 = load ptr, ptr %4, align 8, !tbaa !3
  store ptr %15, ptr %6, align 8, !tbaa !11
  %16 = load ptr, ptr %6, align 8, !tbaa !11
  %17 = getelementptr inbounds nuw %struct.IDAMemRec, ptr %16, i32 0, i32 240
  %18 = load i32, ptr %17, align 8, !tbaa !50
  %19 = icmp eq i32 %18, 0
  br i1 %19, label %20, label %22

20:                                               ; preds = %14
  %21 = load ptr, ptr %6, align 8, !tbaa !11
  call void (ptr, i32, i32, ptr, ptr, ptr, ...) @IDAProcessError(ptr noundef %21, i32 noundef -101, i32 noundef 673, ptr noundef @__func__.IDACreateB, ptr noundef @.str, ptr noundef @.str.5)
  store i32 -101, ptr %3, align 4
  store i32 1, ptr %10, align 4
  br label %94

22:                                               ; preds = %14
  %23 = load ptr, ptr %6, align 8, !tbaa !11
  %24 = getelementptr inbounds nuw %struct.IDAMemRec, ptr %23, i32 0, i32 239
  %25 = load ptr, ptr %24, align 8, !tbaa !15
  store ptr %25, ptr %9, align 8, !tbaa !13
  %26 = call noalias ptr @malloc(i64 noundef 136) #7
  store ptr %26, ptr %8, align 8, !tbaa !99
  %27 = load ptr, ptr %8, align 8, !tbaa !99
  %28 = icmp eq ptr %27, null
  br i1 %28, label %29, label %31

29:                                               ; preds = %22
  %30 = load ptr, ptr %6, align 8, !tbaa !11
  call void (ptr, i32, i32, ptr, ptr, ptr, ...) @IDAProcessError(ptr noundef %30, i32 noundef -21, i32 noundef 683, ptr noundef @__func__.IDACreateB, ptr noundef @.str, ptr noundef @.str.4)
  store i32 -21, ptr %3, align 4
  store i32 1, ptr %10, align 4
  br label %94

31:                                               ; preds = %22
  %32 = load ptr, ptr %6, align 8, !tbaa !11
  %33 = getelementptr inbounds nuw %struct.IDAMemRec, ptr %32, i32 0, i32 0
  %34 = load ptr, ptr %33, align 8, !tbaa !155
  %35 = call ptr @IDACreate(ptr noundef %34)
  store ptr %35, ptr %7, align 8, !tbaa !3
  %36 = load ptr, ptr %7, align 8, !tbaa !3
  %37 = icmp eq ptr %36, null
  br i1 %37, label %38, label %40

38:                                               ; preds = %31
  %39 = load ptr, ptr %6, align 8, !tbaa !11
  call void (ptr, i32, i32, ptr, ptr, ptr, ...) @IDAProcessError(ptr noundef %39, i32 noundef -21, i32 noundef 692, ptr noundef @__func__.IDACreateB, ptr noundef @.str, ptr noundef @.str.4)
  store i32 -21, ptr %3, align 4
  store i32 1, ptr %10, align 4
  br label %94

40:                                               ; preds = %31
  %41 = load ptr, ptr %7, align 8, !tbaa !3
  %42 = load ptr, ptr %4, align 8, !tbaa !3
  %43 = call i32 @IDASetUserData(ptr noundef %41, ptr noundef %42)
  %44 = load ptr, ptr %9, align 8, !tbaa !13
  %45 = getelementptr inbounds nuw %struct.IDAadjMemRec, ptr %44, i32 0, i32 8
  %46 = load i32, ptr %45, align 8, !tbaa !44
  %47 = load ptr, ptr %8, align 8, !tbaa !99
  %48 = getelementptr inbounds nuw %struct.IDABMemRec, ptr %47, i32 0, i32 0
  store i32 %46, ptr %48, align 8, !tbaa !156
  %49 = load ptr, ptr %7, align 8, !tbaa !3
  %50 = load ptr, ptr %8, align 8, !tbaa !99
  %51 = getelementptr inbounds nuw %struct.IDABMemRec, ptr %50, i32 0, i32 2
  store ptr %49, ptr %51, align 8, !tbaa !102
  %52 = load ptr, ptr %8, align 8, !tbaa !99
  %53 = getelementptr inbounds nuw %struct.IDABMemRec, ptr %52, i32 0, i32 5
  store ptr null, ptr %53, align 8, !tbaa !157
  %54 = load ptr, ptr %8, align 8, !tbaa !99
  %55 = getelementptr inbounds nuw %struct.IDABMemRec, ptr %54, i32 0, i32 6
  store ptr null, ptr %55, align 8, !tbaa !158
  %56 = load ptr, ptr %8, align 8, !tbaa !99
  %57 = getelementptr inbounds nuw %struct.IDABMemRec, ptr %56, i32 0, i32 7
  store ptr null, ptr %57, align 8, !tbaa !159
  %58 = load ptr, ptr %8, align 8, !tbaa !99
  %59 = getelementptr inbounds nuw %struct.IDABMemRec, ptr %58, i32 0, i32 8
  store ptr null, ptr %59, align 8, !tbaa !160
  %60 = load ptr, ptr %8, align 8, !tbaa !99
  %61 = getelementptr inbounds nuw %struct.IDABMemRec, ptr %60, i32 0, i32 9
  store ptr null, ptr %61, align 8, !tbaa !161
  %62 = load ptr, ptr %8, align 8, !tbaa !99
  %63 = getelementptr inbounds nuw %struct.IDABMemRec, ptr %62, i32 0, i32 10
  store ptr null, ptr %63, align 8, !tbaa !162
  %64 = load ptr, ptr %8, align 8, !tbaa !99
  %65 = getelementptr inbounds nuw %struct.IDABMemRec, ptr %64, i32 0, i32 11
  store ptr null, ptr %65, align 8, !tbaa !103
  %66 = load ptr, ptr %8, align 8, !tbaa !99
  %67 = getelementptr inbounds nuw %struct.IDABMemRec, ptr %66, i32 0, i32 12
  store ptr null, ptr %67, align 8, !tbaa !163
  %68 = load ptr, ptr %8, align 8, !tbaa !99
  %69 = getelementptr inbounds nuw %struct.IDABMemRec, ptr %68, i32 0, i32 13
  store ptr null, ptr %69, align 8, !tbaa !104
  %70 = load ptr, ptr %8, align 8, !tbaa !99
  %71 = getelementptr inbounds nuw %struct.IDABMemRec, ptr %70, i32 0, i32 15
  store ptr null, ptr %71, align 8, !tbaa !105
  %72 = load ptr, ptr %8, align 8, !tbaa !99
  %73 = getelementptr inbounds nuw %struct.IDABMemRec, ptr %72, i32 0, i32 16
  store ptr null, ptr %73, align 8, !tbaa !106
  %74 = load ptr, ptr %8, align 8, !tbaa !99
  %75 = getelementptr inbounds nuw %struct.IDABMemRec, ptr %74, i32 0, i32 3
  store i32 0, ptr %75, align 8, !tbaa !164
  %76 = load ptr, ptr %8, align 8, !tbaa !99
  %77 = getelementptr inbounds nuw %struct.IDABMemRec, ptr %76, i32 0, i32 4
  store i32 0, ptr %77, align 4, !tbaa !165
  %78 = load ptr, ptr %9, align 8, !tbaa !13
  %79 = getelementptr inbounds nuw %struct.IDAadjMemRec, ptr %78, i32 0, i32 7
  %80 = load ptr, ptr %79, align 8, !tbaa !42
  %81 = load ptr, ptr %8, align 8, !tbaa !99
  %82 = getelementptr inbounds nuw %struct.IDABMemRec, ptr %81, i32 0, i32 17
  store ptr %80, ptr %82, align 8, !tbaa !100
  %83 = load ptr, ptr %8, align 8, !tbaa !99
  %84 = load ptr, ptr %9, align 8, !tbaa !13
  %85 = getelementptr inbounds nuw %struct.IDAadjMemRec, ptr %84, i32 0, i32 7
  store ptr %83, ptr %85, align 8, !tbaa !42
  %86 = load ptr, ptr %9, align 8, !tbaa !13
  %87 = getelementptr inbounds nuw %struct.IDAadjMemRec, ptr %86, i32 0, i32 8
  %88 = load i32, ptr %87, align 8, !tbaa !44
  %89 = load ptr, ptr %5, align 8, !tbaa !108
  store i32 %88, ptr %89, align 4, !tbaa !9
  %90 = load ptr, ptr %9, align 8, !tbaa !13
  %91 = getelementptr inbounds nuw %struct.IDAadjMemRec, ptr %90, i32 0, i32 8
  %92 = load i32, ptr %91, align 8, !tbaa !44
  %93 = add nsw i32 %92, 1
  store i32 %93, ptr %91, align 8, !tbaa !44
  store i32 0, ptr %3, align 4
  store i32 1, ptr %10, align 4
  br label %94

94:                                               ; preds = %40, %38, %29, %20, %13
  call void @llvm.lifetime.end.p0(i64 8, ptr %9) #6
  call void @llvm.lifetime.end.p0(i64 8, ptr %8) #6
  call void @llvm.lifetime.end.p0(i64 8, ptr %7) #6
  call void @llvm.lifetime.end.p0(i64 8, ptr %6) #6
  %95 = load i32, ptr %3, align 4
  ret i32 %95
}