; Function Attrs: nounwind uwtable
define range(i32 -101, 1) i32 @IDACreateB(ptr noundef %0, ptr noundef writeonly captures(none) %1) local_unnamed_addr #0 {
  %3 = icmp eq ptr %0, null
  br i1 %3, label %4, label %5

4:                                                ; preds = %2
  tail call void (ptr, i32, i32, ptr, ptr, ptr, ...) @IDAProcessError(ptr noundef null, i32 noundef -20, i32 noundef 664, ptr noundef nonnull @__func__.IDACreateB, ptr noundef nonnull @.str, ptr noundef nonnull @.str.1) #9
  br label %32

5:                                                ; preds = %2
  %6 = getelementptr inbounds nuw i8, ptr %0, i64 2120
  %7 = load i32, ptr %6, align 8, !tbaa !46
  %8 = icmp eq i32 %7, 0
  br i1 %8, label %9, label %10

9:                                                ; preds = %5
  tail call void (ptr, i32, i32, ptr, ptr, ptr, ...) @IDAProcessError(ptr noundef nonnull %0, i32 noundef -101, i32 noundef 673, ptr noundef nonnull @__func__.IDACreateB, ptr noundef nonnull @.str, ptr noundef nonnull @.str.5) #9
  br label %32

10:                                               ; preds = %5
  %11 = getelementptr inbounds nuw i8, ptr %0, i64 2112
  %12 = load ptr, ptr %11, align 8, !tbaa !3
  %13 = tail call noalias dereferenceable_or_null(136) ptr @malloc(i64 noundef 136) #10
  %14 = icmp eq ptr %13, null
  br i1 %14, label %15, label %16

15:                                               ; preds = %10
  tail call void (ptr, i32, i32, ptr, ptr, ptr, ...) @IDAProcessError(ptr noundef nonnull %0, i32 noundef -21, i32 noundef 683, ptr noundef nonnull @__func__.IDACreateB, ptr noundef nonnull @.str, ptr noundef nonnull @.str.4) #9
  br label %32

16:                                               ; preds = %10
  %17 = load ptr, ptr %0, align 8, !tbaa !142
  %18 = tail call ptr @IDACreate(ptr noundef %17) #9
  %19 = icmp eq ptr %18, null
  br i1 %19, label %20, label %21

20:                                               ; preds = %16
  tail call void (ptr, i32, i32, ptr, ptr, ptr, ...) @IDAProcessError(ptr noundef nonnull %0, i32 noundef -21, i32 noundef 692, ptr noundef nonnull @__func__.IDACreateB, ptr noundef nonnull @.str, ptr noundef nonnull @.str.4) #9
  br label %32

21:                                               ; preds = %16
  %22 = tail call i32 @IDASetUserData(ptr noundef nonnull %18, ptr noundef nonnull %0) #9
  %23 = getelementptr inbounds nuw i8, ptr %12, i64 56
  %24 = load i32, ptr %23, align 8, !tbaa !40
  store i32 %24, ptr %13, align 8, !tbaa !143
  %25 = getelementptr inbounds nuw i8, ptr %13, i64 16
  store ptr %18, ptr %25, align 8, !tbaa !89
  %26 = getelementptr inbounds nuw i8, ptr %13, i64 112
  %27 = getelementptr inbounds nuw i8, ptr %13, i64 24
  %28 = getelementptr inbounds nuw i8, ptr %12, i64 48
  tail call void @llvm.memset.p0.i64(ptr noundef nonnull align 8 dereferenceable(80) %27, i8 0, i64 80, i1 false)
  tail call void @llvm.memset.p0.i64(ptr noundef nonnull align 8 dereferenceable(16) %26, i8 0, i64 16, i1 false)
  %29 = load ptr, ptr %28, align 8, !tbaa !38
  %30 = getelementptr inbounds nuw i8, ptr %13, i64 128
  store ptr %29, ptr %30, align 8, !tbaa !85
  store ptr %13, ptr %28, align 8, !tbaa !38
  store i32 %24, ptr %1, align 4, !tbaa !111
  %31 = add nsw i32 %24, 1
  store i32 %31, ptr %23, align 8, !tbaa !40
  br label %32

32:                                               ; preds = %21, %20, %15, %9, %4
  %.0 = phi i32 [ -20, %4 ], [ -101, %9 ], [ -21, %15 ], [ -21, %20 ], [ 0, %21 ]
  ret i32 %.0
}